target datalayout = "e-m:e-p270:32:32-p271:32:32-p272:64:64-i64:64-i128:128-f80:128-n8:16:32:64-S128"
target triple = "x86_64-pc-linux-gnu"

%"class.std::__1::strstreambuf" = type { %"class.std::__1::basic_streambuf", i32, i64, ptr, ptr }
%"class.std::__1::basic_streambuf" = type { ptr, %"class.std::__1::locale", ptr, ptr, ptr, ptr, ptr, ptr }
%"class.std::__1::locale" = type { ptr }

; Function Attrs: inlinehint mustprogress nounwind uwtable
define linkonce_odr hidden void @_ZNSt3__14swapB8ne210000IPcEENS_9enable_ifIXaasr21is_move_constructibleIT_EE5valuesr18is_move_assignableIS3_EE5valueEvE4typeERS3_S6_(ptr noundef nonnull align 8 dereferenceable(8) %0, ptr noundef nonnull align 8 dereferenceable(8) %1) #3 comdat {
  %3 = alloca ptr, align 8
  %4 = alloca ptr, align 8
  %5 = alloca ptr, align 8
  store ptr %0, ptr %3, align 8, !tbaa !54
  store ptr %1, ptr %4, align 8, !tbaa !54
  call void @llvm.lifetime.start.p0(i64 8, ptr %5) #14
  %6 = load ptr, ptr %3, align 8, !tbaa !54
  %7 = load ptr, ptr %6, align 8, !tbaa !32
  store ptr %7, ptr %5, align 8, !tbaa !32
  %8 = load ptr, ptr %4, align 8, !tbaa !54
  %9 = load ptr, ptr %8, align 8, !tbaa !32
  %10 = load ptr, ptr %3, align 8, !tbaa !54
  store ptr %9, ptr %10, align 8, !tbaa !32
  %11 = load ptr, ptr %5, align 8, !tbaa !32
  %12 = load ptr, ptr %4, align 8, !tbaa !54
  store ptr %11, ptr %12, align 8, !tbaa !32
  call void @llvm.lifetime.end.p0(i64 8, ptr %5) #14
  ret void
}

; Function Attrs: inlinehint mustprogress nounwind uwtable
define linkonce_odr hidden void @_ZNSt3__14swapB8ne210000INS_6localeEEENS_9enable_ifIXaasr21is_move_constructibleIT_EE5valuesr18is_move_assignableIS3_EE5valueEvE4typeERS3_S6_(ptr noundef nonnull align 8 dereferenceable(8) %0, ptr noundef nonnull align 8 dereferenceable(8) %1) #3 comdat {
  %3 = alloca ptr, align 8
  %4 = alloca ptr, align 8
  %5 = alloca %"class.std::__1::locale", align 8
  store ptr %0, ptr %3, align 8, !tbaa !62
  store ptr %1, ptr %4, align 8, !tbaa !62
  call void @llvm.lifetime.start.p0(i64 8, ptr %5) #14
  %6 = load ptr, ptr %3, align 8, !tbaa !62
  call void @_ZNSt3__16localeC1ERKS0_(ptr noundef nonnull align 8 dereferenceable(8) %5, ptr noundef nonnull align 8 dereferenceable(8) %6) #14
  %7 = load ptr, ptr %4, align 8, !tbaa !62
  %8 = load ptr, ptr %3, align 8, !tbaa !62
  %9 = call noundef nonnull align 8 dereferenceable(8) ptr @_ZNSt3__16localeaSERKS0_(ptr noundef nonnull align 8 dereferenceable(8) %8, ptr noundef nonnull align 8 dereferenceable(8) %7) #14
  %10 = load ptr, ptr %4, align 8, !tbaa !62
  %11 = call noundef nonnull align 8 dereferenceable(8) ptr @_ZNSt3__16localeaSERKS0_(ptr noundef nonnull align 8 dereferenceable(8) %10, ptr noundef nonnull align 8 dereferenceable(8) %5) #14
  call void @_ZNSt3__16localeD1Ev(ptr noundef nonnull align 8 dereferenceable(8) %5) #14
  call void @llvm.lifetime.end.p0(i64 8, ptr %5) #14
  ret void
}

; Function Attrs: inlinehint mustprogress nounwind uwtable
define linkonce_odr hidden void @_ZNSt3__14swapB8ne210000IPFvPvEEENS_9enable_ifIXaasr21is_move_constructibleIT_EE5valuesr18is_move_assignableIS5_EE5valueEvE4typeERS5_S8_(ptr noundef nonnull align 8 dereferenceable(8) %0, ptr noundef nonnull align 8 dereferenceable(8) %1) #3 comdat {
  %3 = alloca ptr, align 8
  %4 = alloca ptr, align 8
  %5 = alloca ptr, align 8
  store ptr %0, ptr %3, align 8, !tbaa !38
  store ptr %1, ptr %4, align 8, !tbaa !38
  call void @llvm.lifetime.start.p0(i64 8, ptr %5) #14
  %6 = load ptr, ptr %3, align 8, !tbaa !38
  %7 = load ptr, ptr %6, align 8, !tbaa !31
  store ptr %7, ptr %5, align 8, !tbaa !31
  %8 = load ptr, ptr %4, align 8, !tbaa !38
  %9 = load ptr, ptr %8, align 8, !tbaa !31
  %10 = load ptr, ptr %3, align 8, !tbaa !38
  store ptr %9, ptr %10, align 8, !tbaa !31
  %11 = load ptr, ptr %5, align 8, !tbaa !31
  %12 = load ptr, ptr %4, align 8, !tbaa !38
  store ptr %11, ptr %12, align 8, !tbaa !31
  call void @llvm.lifetime.end.p0(i64 8, ptr %5) #14
  ret void
}

; Function Attrs: inlinehint mustprogress nounwind uwtable
define linkonce_odr hidden void @_ZNSt3__14swapB8ne210000IPFPvmEEENS_9enable_ifIXaasr21is_move_constructibleIT_EE5valuesr18is_move_assignableIS5_EE5valueEvE4typeERS5_S8_(ptr noundef nonnull align 8 dereferenceable(8) %0, ptr noundef nonnull align 8 dereferenceable(8) %1) #3 comdat {
  %3 = alloca ptr, align 8
  %4 = alloca ptr, align 8
  %5 = alloca ptr, align 8
  store ptr %0, ptr %3, align 8, !tbaa !38
  store ptr %1, ptr %4, align 8, !tbaa !38
  call void @llvm.lifetime.start.p0(i64 8, ptr %5) #14
  %6 = load ptr, ptr %3, align 8, !tbaa !38
  %7 = load ptr, ptr %6, align 8, !tbaa !31
  store ptr %7, ptr %5, align 8, !tbaa !31
  %8 = load ptr, ptr %4, align 8, !tbaa !38
  %9 = load ptr, ptr %8, align 8, !tbaa !31
  %10 = load ptr, ptr %3, align 8, !tbaa !38
  store ptr %9, ptr %10, align 8, !tbaa !31
  %11 = load ptr, ptr %5, align 8, !tbaa !31
  %12 = load ptr, ptr %4, align 8, !tbaa !38
  store ptr %11, ptr %12, align 8, !tbaa !31
  call void @llvm.lifetime.end.p0(i64 8, ptr %5) #14
  ret void
}

; Function Attrs: inlinehint mustprogress nounwind uwtable
define linkonce_odr hidden void @_ZNSt3__14swapB8ne210000IlEENS_9enable_ifIXaasr21is_move_constructibleIT_EE5valuesr18is_move_assignableIS2_EE5valueEvE4typeERS2_S5_(ptr noundef nonnull align 8 dereferenceable(8) %0, ptr noundef nonnull align 8 dereferenceable(8) %1) #3 comdat {
  %3 = alloca ptr, align 8
  %4 = alloca ptr, align 8
  %5 = alloca i64, align 8
  store ptr %0, ptr %3, align 8, !tbaa !36
  store ptr %1, ptr %4, align 8, !tbaa !36
  call void @llvm.lifetime.start.p0(i64 8, ptr %5) #14
  %6 = load ptr, ptr %3, align 8, !tbaa !36
  %7 = load i64, ptr %6, align 8, !tbaa !9
  store i64 %7, ptr %5, align 8, !tbaa !9
  %8 = load ptr, ptr %4, align 8, !tbaa !36
  %9 = load i64, ptr %8, align 8, !tbaa !9
  %10 = load ptr, ptr %3, align 8, !tbaa !36
  store i64 %9, ptr %10, align 8, !tbaa !9
  %11 = load i64, ptr %5, align 8, !tbaa !9
  %12 = load ptr, ptr %4, align 8, !tbaa !36
  store i64 %11, ptr %12, align 8, !tbaa !9
  call void @llvm.lifetime.end.p0(i64 8, ptr %5) #14
  ret void
}

; Function Attrs: inlinehint mustprogress nounwind uwtable
define linkonce_odr hidden void @_ZNSt3__14swapB8ne210000IjEENS_9enable_ifIXaasr21is_move_constructibleIT_EE5valuesr18is_move_assignableIS2_EE5valueEvE4typeERS2_S5_(ptr noundef nonnull align 4 dereferenceable(4) %0, ptr noundef nonnull align 4 dereferenceable(4) %1) #3 comdat {
  %3 = alloca ptr, align 8
  %4 = alloca ptr, align 8
  %5 = alloca i32, align 4
  store ptr %0, ptr %3, align 8, !tbaa !33
  store ptr %1, ptr %4, align 8, !tbaa !33
  call void @llvm.lifetime.start.p0(i64 4, ptr %5) #14
  %6 = load ptr, ptr %3, align 8, !tbaa !33
  %7 = load i32, ptr %6, align 4, !tbaa !35
  store i32 %7, ptr %5, align 4, !tbaa !35
  %8 = load ptr, ptr %4, align 8, !tbaa !33
  %9 = load i32, ptr %8, align 4, !tbaa !35
  %10 = load ptr, ptr %3, align 8, !tbaa !33
  store i32 %9, ptr %10, align 4, !tbaa !35
  %11 = load i32, ptr %5, align 4, !tbaa !35
  %12 = load ptr, ptr %4, align 8, !tbaa !33
  store i32 %11, ptr %12, align 4, !tbaa !35
  call void @llvm.lifetime.end.p0(i64 4, ptr %5) #14
  ret void
}

; Function Attrs: mustprogress nounwind uwtable
define available_externally void @_ZNSt3__115basic_streambufIcNS_11char_traitsIcEEE4swapERS3_(ptr noundef nonnull align 8 dereferenceable(64) %0, ptr noundef nonnull align 8 dereferenceable(64) %1) #1 align 2 {
  %3 = alloca ptr, align 8
  %4 = alloca ptr, align 8
  store ptr %0, ptr %3, align 8, !tbaa !23
  store ptr %1, ptr %4, align 8, !tbaa !23
  %5 = load ptr, ptr %3, align 8
  %6 = getelementptr inbounds nuw %"class.std::__1::basic_streambuf", ptr %5, i32 0, i32 1
  %7 = load ptr, ptr %4, align 8, !tbaa !23
  %8 = getelementptr inbounds nuw %"class.std::__1::basic_streambuf", ptr %7, i32 0, i32 1
  call void @_ZNSt3__14swapB8ne210000INS_6localeEEENS_9enable_ifIXaasr21is_move_constructibleIT_EE5valuesr18is_move_assignableIS3_EE5valueEvE4typeERS3_S6_(ptr noundef nonnull align 8 dereferenceable(8) %6, ptr noundef nonnull align 8 dereferenceable(8) %8) #14
  %9 = getelementptr inbounds nuw %"class.std::__1::basic_streambuf", ptr %5, i32 0, i32 2
  %10 = load ptr, ptr %4, align 8, !tbaa !23
  %11 = getelementptr inbounds nuw %"class.std::__1::basic_streambuf", ptr %10, i32 0, i32 2
  call void @_ZNSt3__14swapB8ne210000IPcEENS_9enable_ifIXaasr21is_move_constructibleIT_EE5valuesr18is_move_assignableIS3_EE5valueEvE4typeERS3_S6_(ptr noundef nonnull align 8 dereferenceable(8) %9, ptr noundef nonnull align 8 dereferenceable(8) %11) #14
  %12 = getelementptr inbounds nuw %"class.std::__1::basic_streambuf", ptr %5, i32 0, i32 3
  %13 = load ptr, ptr %4, align 8, !tbaa !23
  %14 = getelementptr inbounds nuw %"class.std::__1::basic_streambuf", ptr %13, i32 0, i32 3
  call void @_ZNSt3__14swapB8ne210000IPcEENS_9enable_ifIXaasr21is_move_constructibleIT_EE5valuesr18is_move_assignableIS3_EE5valueEvE4typeERS3_S6_(ptr noundef nonnull align 8 dereferenceable(8) %12, ptr noundef nonnull align 8 dereferenceable(8) %14) #14
  %15 = getelementptr inbounds nuw %"class.std::__1::basic_streambuf", ptr %5, i32 0, i32 4
  %16 = load ptr, ptr %4, align 8, !tbaa !23
  %17 = getelementptr inbounds nuw %"class.std::__1::basic_streambuf", ptr %16, i32 0, i32 4
  call void @_ZNSt3__14swapB8ne210000IPcEENS_9enable_ifIXaasr21is_move_constructibleIT_EE5valuesr18is_move_assignableIS3_EE5valueEvE4typeERS3_S6_(ptr noundef nonnull align 8 dereferenceable(8) %15, ptr noundef nonnull align 8 dereferenceable(8) %17) #14
  %18 = getelementptr inbounds nuw %"class.std::__1::basic_streambuf", ptr %5, i32 0, i32 5
  %19 = load ptr, ptr %4, align 8, !tbaa !23
  %20 = getelementptr inbounds nuw %"class.std::__1::basic_streambuf", ptr %19, i32 0, i32 5
  call void @_ZNSt3__14swapB8ne210000IPcEENS_9enable_ifIXaasr21is_move_constructibleIT_EE5valuesr18is_move_assignableIS3_EE5valueEvE4typeERS3_S6_(ptr noundef nonnull align 8 dereferenceable(8) %18, ptr noundef nonnull align 8 dereferenceable(8) %20) #14
  %21 = getelementptr inbounds nuw %"class.std::__1::basic_streambuf", ptr %5, i32 0, i32 6
  %22 = load ptr, ptr %4, align 8, !tbaa !23
  %23 = getelementptr inbounds nuw %"class.std::__1::basic_streambuf", ptr %22, i32 0, i32 6
  call void @_ZNSt3__14swapB8ne210000IPcEENS_9enable_ifIXaasr21is_move_constructibleIT_EE5valuesr18is_move_assignableIS3_EE5valueEvE4typeERS3_S6_(ptr noundef nonnull align 8 dereferenceable(8) %21, ptr noundef nonnull align 8 dereferenceable(8) %23) #14
  %24 = getelementptr inbounds nuw %"class.std::__1::basic_streambuf", ptr %5, i32 0, i32 7
  %25 = load ptr, ptr %4, align 8, !tbaa !23
  %26 = getelementptr inbounds nuw %"class.std::__1::basic_streambuf", ptr %25, i32 0, i32 7
  call void @_ZNSt3__14swapB8ne210000IPcEENS_9enable_ifIXaasr21is_move_constructibleIT_EE5valuesr18is_move_assignableIS3_EE5valueEvE4typeERS3_S6_(ptr noundef nonnull align 8 dereferenceable(8) %24, ptr noundef nonnull align 8 dereferenceable(8) %26) #14
  ret void
}

; Function Attrs: mustprogress uwtable
define dso_local void @_ZNSt3__112strstreambuf4swapERS0_(ptr noundef nonnull align 8 dereferenceable(96) %0, ptr noundef nonnull align 8 dereferenceable(96) %1) #0 align 2 {
  %3 = alloca ptr, align 8
  %4 = alloca ptr, align 8
  store ptr %0, ptr %3, align 8, !tbaa !4
  store ptr %1, ptr %4, align 8, !tbaa !4
  %5 = load ptr, ptr %3, align 8
  %6 = load ptr, ptr %4, align 8, !tbaa !4
  call void @_ZNSt3__115basic_streambufIcNS_11char_traitsIcEEE4swapERS3_(ptr noundef nonnull align 8 dereferenceable(64) %5, ptr noundef nonnull align 8 dereferenceable(64) %6)
  %7 = getelementptr inbounds nuw %"class.std::__1::strstreambuf", ptr %5, i32 0, i32 1
  %8 = load ptr, ptr %4, align 8, !tbaa !4
  %9 = getelementptr inbounds nuw %"class.std::__1::strstreambuf", ptr %8, i32 0, i32 1
  call void @_ZNSt3__14swapB8ne210000IjEENS_9enable_ifIXaasr21is_move_constructibleIT_EE5valuesr18is_move_assignableIS2_EE5valueEvE4typeERS2_S5_(ptr noundef nonnull align 4 dereferenceable(4) %7, ptr noundef nonnull align 4 dereferenceable(4) %9) #14
  %10 = getelementptr inbounds nuw %"class.std::__1::strstreambuf", ptr %5, i32 0, i32 2
  %11 = load ptr, ptr %4, align 8, !tbaa !4
  %12 = getelementptr inbounds nuw %"class.std::__1::strstreambuf", ptr %11, i32 0, i32 2
  call void @_ZNSt3__14swapB8ne210000IlEENS_9enable_ifIXaasr21is_move_constructibleIT_EE5valuesr18is_move_assignableIS2_EE5valueEvE4typeERS2_S5_(ptr noundef nonnull align 8 dereferenceable(8) %10, ptr noundef nonnull align 8 dereferenceable(8) %12) #14
  %13 = getelementptr inbounds nuw %"class.std::__1::strstreambuf", ptr %5, i32 0, i32 3
  %14 = load ptr, ptr %4, align 8, !tbaa !4
  %15 = getelementptr inbounds nuw %"class.std::__1::strstreambuf", ptr %14, i32 0, i32 3
  call void @_ZNSt3__14swapB8ne210000IPFPvmEEENS_9enable_ifIXaasr21is_move_constructibleIT_EE5valuesr18is_move_assignableIS5_EE5valueEvE4typeERS5_S8_(ptr noundef nonnull align 8 dereferenceable(8) %13, ptr noundef nonnull align 8 dereferenceable(8) %15) #14
  %16 = getelementptr inbounds nuw %"class.std::__1::strstreambuf", ptr %5, i32 0, i32 4
  %17 = load ptr, ptr %4, align 8, !tbaa !4
  %18 = getelementptr inbounds nuw %"class.std::__1::strstreambuf", ptr %17, i32 0, i32 4
  call void @_ZNSt3__14swapB8ne210000IPFvPvEEENS_9enable_ifIXaasr21is_move_constructibleIT_EE5valuesr18is_move_assignableIS5_EE5valueEvE4typeERS5_S8_(ptr noundef nonnull align 8 dereferenceable(8) %16, ptr noundef nonnull align 8 dereferenceable(8) %18) #14
  ret void
}