; Function Attrs: mustprogress nounwind uwtable
define dso_local void @_ZNSt3__112strstreambuf4swapERS0_(ptr noundef nonnull align 8 dereferenceable(96) %0, ptr noundef nonnull align 8 dereferenceable(96) %1) local_unnamed_addr #0 align 2 {
  %3 = alloca %"class.std::__1::locale", align 8
  %4 = getelementptr inbounds nuw i8, ptr %0, i64 8
  %5 = getelementptr inbounds nuw i8, ptr %1, i64 8
  call void @llvm.lifetime.start.p0(i64 8, ptr nonnull %3) #18
  call void @_ZNSt3__16localeC1ERKS0_(ptr noundef nonnull align 8 dereferenceable(8) %3, ptr noundef nonnull align 8 dereferenceable(8) %4) #18
  %6 = call noundef nonnull align 8 dereferenceable(8) ptr @_ZNSt3__16localeaSERKS0_(ptr noundef nonnull align 8 dereferenceable(8) %4, ptr noundef nonnull align 8 dereferenceable(8) %5) #18
  %7 = call noundef nonnull align 8 dereferenceable(8) ptr @_ZNSt3__16localeaSERKS0_(ptr noundef nonnull align 8 dereferenceable(8) %5, ptr noundef nonnull align 8 dereferenceable(8) %3) #18
  call void @_ZNSt3__16localeD1Ev(ptr noundef nonnull align 8 dereferenceable(8) %3) #18
  call void @llvm.lifetime.end.p0(i64 8, ptr nonnull %3) #18
  %8 = getelementptr inbounds nuw i8, ptr %0, i64 16
  %9 = getelementptr inbounds nuw i8, ptr %1, i64 16
  %10 = load ptr, ptr %8, align 8, !tbaa !26
  %11 = load ptr, ptr %9, align 8, !tbaa !26
  store ptr %11, ptr %8, align 8, !tbaa !26
  store ptr %10, ptr %9, align 8, !tbaa !26
  %12 = getelementptr inbounds nuw i8, ptr %0, i64 24
  %13 = getelementptr inbounds nuw i8, ptr %1, i64 24
  %14 = load ptr, ptr %12, align 8, !tbaa !26
  %15 = load ptr, ptr %13, align 8, !tbaa !26
  store ptr %15, ptr %12, align 8, !tbaa !26
  store ptr %14, ptr %13, align 8, !tbaa !26
  %16 = getelementptr inbounds nuw i8, ptr %0, i64 32
  %17 = getelementptr inbounds nuw i8, ptr %1, i64 32
  %18 = load ptr, ptr %16, align 8, !tbaa !26
  %19 = load ptr, ptr %17, align 8, !tbaa !26
  store ptr %19, ptr %16, align 8, !tbaa !26
  store ptr %18, ptr %17, align 8, !tbaa !26
  %20 = getelementptr inbounds nuw i8, ptr %0, i64 40
  %21 = getelementptr inbounds nuw i8, ptr %1, i64 40
  %22 = load ptr, ptr %20, align 8, !tbaa !26
  %23 = load ptr, ptr %21, align 8, !tbaa !26
  store ptr %23, ptr %20, align 8, !tbaa !26
  store ptr %22, ptr %21, align 8, !tbaa !26
  %24 = getelementptr inbounds nuw i8, ptr %0, i64 48
  %25 = getelementptr inbounds nuw i8, ptr %1, i64 48
  %26 = load ptr, ptr %24, align 8, !tbaa !26
  %27 = load ptr, ptr %25, align 8, !tbaa !26
  store ptr %27, ptr %24, align 8, !tbaa !26
  store ptr %26, ptr %25, align 8, !tbaa !26
  %28 = getelementptr inbounds nuw i8, ptr %0, i64 56
  %29 = getelementptr inbounds nuw i8, ptr %1, i64 56
  %30 = load ptr, ptr %28, align 8, !tbaa !26
  %31 = load ptr, ptr %29, align 8, !tbaa !26
  store ptr %31, ptr %28, align 8, !tbaa !26
  store ptr %30, ptr %29, align 8, !tbaa !26
  %32 = getelementptr inbounds nuw i8, ptr %0, i64 64
  %33 = getelementptr inbounds nuw i8, ptr %1, i64 64
  %34 = load i32, ptr %32, align 8, !tbaa !27
  %35 = load i32, ptr %33, align 8, !tbaa !27
  store i32 %35, ptr %32, align 8, !tbaa !27
  store i32 %34, ptr %33, align 8, !tbaa !27
  %36 = getelementptr inbounds nuw i8, ptr %0, i64 72
  %37 = getelementptr inbounds nuw i8, ptr %1, i64 72
  %38 = load i64, ptr %36, align 8, !tbaa !28
  %39 = load i64, ptr %37, align 8, !tbaa !28
  store i64 %39, ptr %36, align 8, !tbaa !28
  store i64 %38, ptr %37, align 8, !tbaa !28
  %40 = getelementptr inbounds nuw i8, ptr %0, i64 80
  %41 = getelementptr inbounds nuw i8, ptr %1, i64 80
  %42 = load ptr, ptr %40, align 8, !tbaa !29
  %43 = load ptr, ptr %41, align 8, !tbaa !29
  store ptr %43, ptr %40, align 8, !tbaa !29
  store ptr %42, ptr %41, align 8, !tbaa !29
  %44 = getelementptr inbounds nuw i8, ptr %0, i64 88
  %45 = getelementptr inbounds nuw i8, ptr %1, i64 88
  %46 = load ptr, ptr %44, align 8, !tbaa !29
  %47 = load ptr, ptr %45, align 8, !tbaa !29
  store ptr %47, ptr %44, align 8, !tbaa !29
  store ptr %46, ptr %45, align 8, !tbaa !29
  ret void
}